; ModuleID = '38/18.c'
source_filename = "38/18.c"
target datalayout = "e-m:e-p270:32:32-p271:32:32-p272:64:64-i64:64-f80:128-n8:16:32:64-S128"
target triple = "x86_64-pc-linux-gnu"

@.str = private unnamed_addr constant [3 x i8] c"%d\00", align 1
@.str.1 = private unnamed_addr constant [4 x i8] c"%lf\00", align 1
@.str.2 = private unnamed_addr constant [6 x i8] c"%.5f\0A\00", align 1

; Function Attrs: noinline nounwind uwtable
define dso_local void @main() #0 {
  %1 = alloca i32, align 4
  %2 = alloca i32, align 4
  %3 = alloca i32, align 4
  %4 = alloca i32, align 4
  %5 = alloca double*, align 8
  %6 = alloca double*, align 8
  %7 = alloca double, align 8
  %8 = call i32 (i8*, ...) @__isoc99_scanf(i8* getelementptr inbounds ([3 x i8], [3 x i8]* @.str, i64 0, i64 0), i32* %1)
  %9 = load i32, i32* %1, align 4
  %10 = sext i32 %9 to i64
  %11 = mul i64 8, %10
  %12 = call noalias i8* @malloc(i64 %11) #3
  %13 = bitcast i8* %12 to double*
  store double* %13, double** %5, align 8
  store i32 0, i32* %2, align 4
  br label %14

14:                                               ; preds = %23, %0
  %15 = load i32, i32* %2, align 4
  %16 = load i32, i32* %1, align 4
  %17 = icmp slt i32 %15, %16
  br i1 %17, label %18, label %26

18:                                               ; preds = %14
  %19 = load double*, double** %5, align 8
  %20 = load i32, i32* %2, align 4
  %21 = sext i32 %20 to i64
  %22 = getelementptr inbounds double, double* %19, i64 %21
  store double 0.000000e+00, double* %22, align 8
  br label %23

23:                                               ; preds = %18
  %24 = load i32, i32* %2, align 4
  %25 = add nsw i32 %24, 1
  store i32 %25, i32* %2, align 4
  br label %14

26:                                               ; preds = %14
  store i32 0, i32* %2, align 4
  br label %27

27:                                               ; preds = %113, %26
  %28 = load i32, i32* %2, align 4
  %29 = load i32, i32* %1, align 4
  %30 = icmp slt i32 %28, %29
  br i1 %30, label %31, label %116

31:                                               ; preds = %27
  %32 = call i32 (i8*, ...) @__isoc99_scanf(i8* getelementptr inbounds ([3 x i8], [3 x i8]* @.str, i64 0, i64 0), i32* %4)
  %33 = load i32, i32* %4, align 4
  %34 = sext i32 %33 to i64
  %35 = mul i64 8, %34
  %36 = call noalias i8* @malloc(i64 %35) #3
  %37 = bitcast i8* %36 to double*
  store double* %37, double** %6, align 8
  store double 0.000000e+00, double* %7, align 8
  store i32 0, i32* %3, align 4
  br label %38

38:                                               ; preds = %55, %31
  %39 = load i32, i32* %3, align 4
  %40 = load i32, i32* %4, align 4
  %41 = icmp slt i32 %39, %40
  br i1 %41, label %42, label %58

42:                                               ; preds = %38
  %43 = load double*, double** %6, align 8
  %44 = load i32, i32* %3, align 4
  %45 = sext i32 %44 to i64
  %46 = getelementptr inbounds double, double* %43, i64 %45
  %47 = call i32 (i8*, ...) @__isoc99_scanf(i8* getelementptr inbounds ([4 x i8], [4 x i8]* @.str.1, i64 0, i64 0), double* %46)
  %48 = load double*, double** %6, align 8
  %49 = load i32, i32* %3, align 4
  %50 = sext i32 %49 to i64
  %51 = getelementptr inbounds double, double* %48, i64 %50
  %52 = load double, double* %51, align 8
  %53 = load double, double* %7, align 8
  %54 = fadd double %53, %52
  store double %54, double* %7, align 8
  br label %55

55:                                               ; preds = %42
  %56 = load i32, i32* %3, align 4
  %57 = add nsw i32 %56, 1
  store i32 %57, i32* %3, align 4
  br label %38

58:                                               ; preds = %38
  %59 = load double, double* %7, align 8
  %60 = load i32, i32* %4, align 4
  %61 = sitofp i32 %60 to double
  %62 = fdiv double %59, %61
  store double %62, double* %7, align 8
  store i32 0, i32* %3, align 4
  br label %63

63:                                               ; preds = %89, %58
  %64 = load i32, i32* %3, align 4
  %65 = load i32, i32* %4, align 4
  %66 = icmp slt i32 %64, %65
  br i1 %66, label %67, label %92

67:                                               ; preds = %63
  %68 = load double*, double** %6, align 8
  %69 = load i32, i32* %3, align 4
  %70 = sext i32 %69 to i64
  %71 = getelementptr inbounds double, double* %68, i64 %70
  %72 = load double, double* %71, align 8
  %73 = load double, double* %7, align 8
  %74 = fsub double %72, %73
  %75 = load double*, double** %6, align 8
  %76 = load i32, i32* %3, align 4
  %77 = sext i32 %76 to i64
  %78 = getelementptr inbounds double, double* %75, i64 %77
  %79 = load double, double* %78, align 8
  %80 = load double, double* %7, align 8
  %81 = fsub double %79, %80
  %82 = fmul double %74, %81
  %83 = load double*, double** %5, align 8
  %84 = load i32, i32* %2, align 4
  %85 = sext i32 %84 to i64
  %86 = getelementptr inbounds double, double* %83, i64 %85
  %87 = load double, double* %86, align 8
  %88 = fadd double %87, %82
  store double %88, double* %86, align 8
  br label %89

89:                                               ; preds = %67
  %90 = load i32, i32* %3, align 4
  %91 = add nsw i32 %90, 1
  store i32 %91, i32* %3, align 4
  br label %63

92:                                               ; preds = %63
  %93 = load i32, i32* %4, align 4
  %94 = sitofp i32 %93 to double
  %95 = load double*, double** %5, align 8
  %96 = load i32, i32* %2, align 4
  %97 = sext i32 %96 to i64
  %98 = getelementptr inbounds double, double* %95, i64 %97
  %99 = load double, double* %98, align 8
  %100 = fdiv double %99, %94
  store double %100, double* %98, align 8
  %101 = load double*, double** %5, align 8
  %102 = load i32, i32* %2, align 4
  %103 = sext i32 %102 to i64
  %104 = getelementptr inbounds double, double* %101, i64 %103
  %105 = load double, double* %104, align 8
  %106 = call double @sqrt(double %105) #3
  %107 = load double*, double** %5, align 8
  %108 = load i32, i32* %2, align 4
  %109 = sext i32 %108 to i64
  %110 = getelementptr inbounds double, double* %107, i64 %109
  store double %106, double* %110, align 8
  %111 = load double*, double** %6, align 8
  %112 = bitcast double* %111 to i8*
  call void @free(i8* %112) #3
  br label %113

113:                                              ; preds = %92
  %114 = load i32, i32* %2, align 4
  %115 = add nsw i32 %114, 1
  store i32 %115, i32* %2, align 4
  br label %27

116:                                              ; preds = %27
  store i32 0, i32* %2, align 4
  br label %117

117:                                              ; preds = %128, %116
  %118 = load i32, i32* %2, align 4
  %119 = load i32, i32* %1, align 4
  %120 = icmp slt i32 %118, %119
  br i1 %120, label %121, label %131

121:                                              ; preds = %117
  %122 = load double*, double** %5, align 8
  %123 = load i32, i32* %2, align 4
  %124 = sext i32 %123 to i64
  %125 = getelementptr inbounds double, double* %122, i64 %124
  %126 = load double, double* %125, align 8
  %127 = call i32 (i8*, ...) @printf(i8* getelementptr inbounds ([6 x i8], [6 x i8]* @.str.2, i64 0, i64 0), double %126)
  br label %128

128:                                              ; preds = %121
  %129 = load i32, i32* %2, align 4
  %130 = add nsw i32 %129, 1
  store i32 %130, i32* %2, align 4
  br label %117

131:                                              ; preds = %117
  ret void
}

declare dso_local i32 @__isoc99_scanf(i8*, ...) #1

; Function Attrs: nounwind
declare dso_local noalias i8* @malloc(i64) #2

; Function Attrs: nounwind
declare dso_local double @sqrt(double) #2

; Function Attrs: nounwind
declare dso_local void @free(i8*) #2

declare dso_local i32 @printf(i8*, ...) #1


!llvm.module.flags = !{!0}
!llvm.ident = !{!1}

!0 = !{i32 1, !"wchar_size", i32 4}
!1 = !{!"clang version 10.0.0-4ubuntu1 "}
